target datalayout = "e-m:e-p270:32:32-p271:32:32-p272:64:64-i64:64-i128:128-f80:128-n8:16:32:64-S128"
target triple = "x86_64-unknown-linux-gnu"

@.str = private unnamed_addr constant [10 x i8] c"/chardevs\00", align 1

; Function Attrs: nounwind sspstrong uwtable
define dso_local ptr @get_chardevs_root() #0 {
entry:
  %call = call ptr @object_get_root()
  %call1 = call ptr @container_get(ptr noundef %call, ptr noundef @.str)
  ret ptr %call1
}

; Function Attrs: nounwind sspstrong uwtable
define dso_local ptr @qmp_query_chardev(ptr noundef %errp) #0 {
entry:
  %errp.addr = alloca ptr, align 8
  %chr_list = alloca ptr, align 8
  store ptr %errp, ptr %errp.addr, align 8
  store ptr null, ptr %chr_list, align 8
  %call = call ptr @get_chardevs_root()
  %call1 = call i32 @object_child_foreach(ptr noundef %call, ptr noundef @qmp_query_chardev_foreach, ptr noundef %chr_list)
  %0 = load ptr, ptr %chr_list, align 8
  ret ptr %0
}