; Function Attrs: nounwind sspstrong uwtable
define dso_local ptr @qmp_query_chardev(ptr noundef readnone captures(none) %errp) local_unnamed_addr #0 {
entry:
  %chr_list = alloca ptr, align 8
  store ptr null, ptr %chr_list, align 8
  %call.i = tail call ptr @object_get_root() #13
  %call1.i = tail call ptr @container_get(ptr noundef %call.i, ptr noundef nonnull @.str) #13
  %call1 = call i32 @object_child_foreach(ptr noundef %call1.i, ptr noundef nonnull @qmp_query_chardev_foreach, ptr noundef nonnull %chr_list) #13
  %0 = load ptr, ptr %chr_list, align 8
  ret ptr %0
}